; Function Attrs: mustprogress nounwind uwtable
define hidden noundef i32 @_ZN14WriteableFlags14set_uintx_flagEPKcS1_13JVMFlagOriginR12FormatBufferILm80EE(ptr noundef %0, ptr nocapture noundef readonly %1, i32 noundef %2, ptr noundef nonnull align 8 dereferenceable(88) %3) local_unnamed_addr #0 align 2 {
  %5 = alloca i64, align 8
  %6 = alloca i64, align 8
  %7 = call i32 (ptr, ptr, ...) @__isoc99_sscanf(ptr noundef %1, ptr noundef nonnull @.str.11, ptr noundef nonnull %6) #13
  %8 = icmp eq i32 %7, 1
  br i1 %8, label %9, label %19

9:                                                ; preds = %4
  %10 = load i64, ptr %6, align 8
  call void @llvm.lifetime.start.p0(i64 8, ptr nonnull %5)
  store i64 %10, ptr %5, align 8
  %11 = call i64 @strlen(ptr noundef nonnull dereferenceable(1) %0) #12
  %12 = call noundef ptr @_ZN7JVMFlag9find_flagEPKcmbb(ptr noundef %0, i64 noundef %11, i1 noundef zeroext false, i1 noundef zeroext false) #13
  %13 = icmp eq ptr %12, null
  br i1 %13, label %_ZN14WriteableFlags13set_flag_implImLi4EEEN7JVMFlag5ErrorEPKcT_13JVMFlagOriginR12FormatBufferILm80EE.exit, label %14

14:                                               ; preds = %9
  %15 = getelementptr inbounds i8, ptr %12, i64 20
  %16 = load i32, ptr %15, align 4
  %.not.i.i.i = icmp eq i32 %16, 4
  br i1 %.not.i.i.i, label %17, label %_ZN14WriteableFlags13set_flag_implImLi4EEEN7JVMFlag5ErrorEPKcT_13JVMFlagOriginR12FormatBufferILm80EE.exit

17:                                               ; preds = %14
  %18 = call noundef i32 @_ZN13JVMFlagAccess8set_implEP7JVMFlagPv13JVMFlagOrigin(ptr noundef nonnull %12, ptr noundef nonnull %5, i32 noundef %2) #13
  br label %_ZN14WriteableFlags13set_flag_implImLi4EEEN7JVMFlag5ErrorEPKcT_13JVMFlagOriginR12FormatBufferILm80EE.exit

_ZN14WriteableFlags13set_flag_implImLi4EEEN7JVMFlag5ErrorEPKcT_13JVMFlagOriginR12FormatBufferILm80EE.exit: ; preds = %9, %14, %17
  %.0.i.i = phi i32 [ %18, %17 ], [ 7, %9 ], [ 3, %14 ]
  call fastcc void @_ZL34print_flag_error_message_if_neededN7JVMFlag5ErrorEPKS_R12FormatBufferILm80EE(i32 noundef %.0.i.i, ptr noundef %12, ptr noundef nonnull align 8 dereferenceable(88) %3)
  call void @llvm.lifetime.end.p0(i64 8, ptr nonnull %5)
  br label %20

19:                                               ; preds = %4
  call void (ptr, ptr, ...) @_ZN12FormatBufferILm80EE5printEPKcz(ptr noundef nonnull align 8 dereferenceable(88) %3, ptr noundef nonnull @.str.9)
  br label %20

20:                                               ; preds = %19, %_ZN14WriteableFlags13set_flag_implImLi4EEEN7JVMFlag5ErrorEPKcT_13JVMFlagOriginR12FormatBufferILm80EE.exit
  %.0 = phi i32 [ %.0.i.i, %_ZN14WriteableFlags13set_flag_implImLi4EEEN7JVMFlag5ErrorEPKcT_13JVMFlagOriginR12FormatBufferILm80EE.exit ], [ 3, %19 ]
  ret i32 %.0
}